Certificate Revocation List (CRL):
        Version 2 (0x1)
    Signature Algorithm: sha256WithRSAEncryption
        Issuer: /C=CZ/CN=GFR EET test CA 1/O=Gener\xC3\xA1ln\xC3\xAD finan\xC4\x8Dn\xC3\xAD \xC5\x99editelstv\xC3\xAD
        Last Update: Jun  7 14:23:39 2016 GMT
        Next Update: Dec  7 02:23:39 2016 GMT
        CRL extensions:
            X509v3 Authority Key Identifier: 
                keyid:7A:5A:FC:0D:CB:EC:36:A6:0D:DA:69:19:66:8C:9B:EF:82:C3:A9:34

            X509v3 CRL Number: 
                2
Revoked Certificates:
    Serial Number: 01000001
        Revocation Date: May 19 12:53:56 2016 GMT
    Signature Algorithm: sha256WithRSAEncryption
         75:b3:ec:f4:0c:64:f0:32:cd:92:ea:eb:b8:19:f0:af:8e:a4:
         ff:93:93:fc:ef:9e:d1:e2:54:3e:4c:56:59:68:8b:c6:c8:c0:
         b4:a5:ec:65:47:c1:61:ec:f7:01:9c:ac:15:8d:bf:dc:9e:cc:
         a4:25:9b:a4:4e:06:85:d4:fb:9f:18:92:79:0d:13:a3:35:ce:
         a5:87:a4:ee:73:10:66:d5:74:80:42:f7:d1:59:d6:bb:2e:1a:
         a6:5d:2b:55:14:d5:50:7d:62:8e:e9:bd:e4:47:e4:d4:f0:8e:
         90:b9:d0:3b:d9:62:86:d4:52:a1:21:e8:35:af:c6:4a:79:09:
         e2:23:b4:d5:0f:64:d0:bd:ec:42:34:fc:a6:69:78:7c:84:c3:
         af:37:f9:0c:7d:82:5f:be:b8:2e:89:6e:f0:e2:77:e3:ee:25:
         45:5a:12:e7:10:92:15:c7:67:12:d8:1b:c7:69:9d:89:da:7c:
         f1:f8:3f:ae:a5:aa:78:09:ad:b7:de:6a:8c:f0:40:72:cd:fb:
         ff:96:c7:6a:b9:bf:cd:87:a4:55:f9:92:22:04:07:ec:7e:50:
         16:62:94:56:ee:fb:96:23:bb:05:df:3f:09:65:53:87:04:0d:
         b0:c4:02:1a:30:e3:f0:80:cc:b0:6e:94:45:9f:c7:fa:d3:41:
         23:b9:f0:01
-----BEGIN X509 CRL-----
MIIB6zCB1AIBATANBgkqhkiG9w0BAQsFADBYMQswCQYDVQQGEwJDWjEaMBgGA1UE
AwwRR0ZSIEVFVCB0ZXN0IENBIDExLTArBgNVBAoMJEdlbmVyw6FsbsOtIGZpbmFu
xI1uw60gxZllZGl0ZWxzdHbDrRcNMTYwNjA3MTQyMzM5WhcNMTYxMjA3MDIyMzM5
WjAXMBUCBAEAAAEXDTE2MDUxOTEyNTM1NlqgLzAtMB8GA1UdIwQYMBaAFHpa/A3L
7DamDdppGWaMm++Cw6k0MAoGA1UdFAQDAgECMA0GCSqGSIb3DQEBCwUAA4IBAQB1
s+z0DGTwMs2S6uu4GfCvjqT/k5P8757R4lQ+TFZZaIvGyMC0pexlR8Fh7PcBnKwV
jb/cnsykJZukTgaF1PufGJJ5DROjNc6lh6TucxBm1XSAQvfRWda7LhqmXStVFNVQ
fWKO6b3kR+TU8I6QudA72WKG1FKhIeg1r8ZKeQniI7TVD2TQvexCNPymaXh8hMOv
N/kMfYJfvrguiW7w4nfj7iVFWhLnEJIVx2cS2BvHaZ2J2nzx+D+upap4Ca233mqM
8EByzfv/lsdqub/Nh6RV+ZIiBAfsflAWYpRW7vuWI7sF3z8JZVOHBA2wxAIaMOPw
gMywbpRFn8f600EjufAB
-----END X509 CRL-----
